target datalayout = "e-m:e-p270:32:32-p271:32:32-p272:64:64-i64:64-i128:128-f80:128-n8:16:32:64-S128"
target triple = "x86_64-pc-linux-gnu"

@.str.358 = private unnamed_addr constant [3 x i8] c"On\00", align 1
@.str.371 = private unnamed_addr constant [5 x i8] c"(Nn)\00", align 1

; Function Attrs: nounwind uwtable
define internal ptr @unicode_aswidechar(ptr noundef %0, ptr noundef %1) #0 {
  %3 = alloca ptr, align 8
  %4 = alloca ptr, align 8
  %5 = alloca ptr, align 8
  %6 = alloca ptr, align 8
  %7 = alloca ptr, align 8
  %8 = alloca i64, align 8
  %9 = alloca i64, align 8
  %10 = alloca ptr, align 8
  %11 = alloca i32, align 4
  store ptr %0, ptr %4, align 8, !tbaa !3
  store ptr %1, ptr %5, align 8, !tbaa !3
  call void @llvm.lifetime.start.p0(i64 8, ptr %6) #7
  call void @llvm.lifetime.start.p0(i64 8, ptr %7) #7
  call void @llvm.lifetime.start.p0(i64 8, ptr %8) #7
  call void @llvm.lifetime.start.p0(i64 8, ptr %9) #7
  call void @llvm.lifetime.start.p0(i64 8, ptr %10) #7
  %12 = load ptr, ptr %5, align 8, !tbaa !3
  %13 = call i32 (ptr, ptr, ...) @PyArg_ParseTuple(ptr noundef %12, ptr noundef @.str.358, ptr noundef %6, ptr noundef %8)
  %14 = icmp ne i32 %13, 0
  br i1 %14, label %16, label %15

15:                                               ; preds = %2
  store ptr null, ptr %3, align 8
  store i32 1, ptr %11, align 4
  br label %68

16:                                               ; preds = %2
  br label %17

17:                                               ; preds = %16
  %18 = load ptr, ptr %6, align 8, !tbaa !3
  %19 = call ptr @Py_GetConstantBorrowed(i32 noundef 0)
  %20 = icmp eq ptr %18, %19
  br i1 %20, label %21, label %22

21:                                               ; preds = %17
  store ptr null, ptr %6, align 8, !tbaa !3
  br label %22

22:                                               ; preds = %21, %17
  br label %23

23:                                               ; preds = %22
  br label %24

24:                                               ; preds = %23
  %25 = load i64, ptr %8, align 8, !tbaa !12
  %26 = icmp ugt i64 %25, 2305843009213693951
  br i1 %26, label %27, label %28

27:                                               ; preds = %24
  br label %32

28:                                               ; preds = %24
  %29 = load i64, ptr %8, align 8, !tbaa !12
  %30 = mul i64 %29, 4
  %31 = call ptr @PyMem_Malloc(i64 noundef %30)
  br label %32

32:                                               ; preds = %28, %27
  %33 = phi ptr [ null, %27 ], [ %31, %28 ]
  store ptr %33, ptr %10, align 8, !tbaa !14
  %34 = load ptr, ptr %10, align 8, !tbaa !14
  %35 = icmp eq ptr %34, null
  br i1 %35, label %36, label %38

36:                                               ; preds = %32
  %37 = call ptr @PyErr_NoMemory()
  store ptr %37, ptr %3, align 8
  store i32 1, ptr %11, align 4
  br label %68

38:                                               ; preds = %32
  %39 = load ptr, ptr %6, align 8, !tbaa !3
  %40 = load ptr, ptr %10, align 8, !tbaa !14
  %41 = load i64, ptr %8, align 8, !tbaa !12
  %42 = call i64 @PyUnicode_AsWideChar(ptr noundef %39, ptr noundef %40, i64 noundef %41)
  store i64 %42, ptr %9, align 8, !tbaa !12
  %43 = load i64, ptr %9, align 8, !tbaa !12
  %44 = icmp eq i64 %43, -1
  br i1 %44, label %45, label %47

45:                                               ; preds = %38
  %46 = load ptr, ptr %10, align 8, !tbaa !14
  call void @PyMem_Free(ptr noundef %46)
  store ptr null, ptr %3, align 8
  store i32 1, ptr %11, align 4
  br label %68

47:                                               ; preds = %38
  %48 = load i64, ptr %9, align 8, !tbaa !12
  %49 = load i64, ptr %8, align 8, !tbaa !12
  %50 = icmp slt i64 %48, %49
  br i1 %50, label %51, label %54

51:                                               ; preds = %47
  %52 = load i64, ptr %9, align 8, !tbaa !12
  %53 = add i64 %52, 1
  store i64 %53, ptr %8, align 8, !tbaa !12
  br label %56

54:                                               ; preds = %47
  %55 = load i64, ptr %9, align 8, !tbaa !12
  store i64 %55, ptr %8, align 8, !tbaa !12
  br label %56

56:                                               ; preds = %54, %51
  %57 = load ptr, ptr %10, align 8, !tbaa !14
  %58 = load i64, ptr %8, align 8, !tbaa !12
  %59 = call ptr @PyUnicode_FromWideChar(ptr noundef %57, i64 noundef %58)
  store ptr %59, ptr %7, align 8, !tbaa !3
  %60 = load ptr, ptr %10, align 8, !tbaa !14
  call void @PyMem_Free(ptr noundef %60)
  %61 = load ptr, ptr %7, align 8, !tbaa !3
  %62 = icmp eq ptr %61, null
  br i1 %62, label %63, label %64

63:                                               ; preds = %56
  store ptr null, ptr %3, align 8
  store i32 1, ptr %11, align 4
  br label %68

64:                                               ; preds = %56
  %65 = load ptr, ptr %7, align 8, !tbaa !3
  %66 = load i64, ptr %9, align 8, !tbaa !12
  %67 = call ptr (ptr, ...) @Py_BuildValue(ptr noundef @.str.371, ptr noundef %65, i64 noundef %66)
  store ptr %67, ptr %3, align 8
  store i32 1, ptr %11, align 4
  br label %68

68:                                               ; preds = %64, %63, %45, %36, %15
  call void @llvm.lifetime.end.p0(i64 8, ptr %10) #7
  call void @llvm.lifetime.end.p0(i64 8, ptr %9) #7
  call void @llvm.lifetime.end.p0(i64 8, ptr %8) #7
  call void @llvm.lifetime.end.p0(i64 8, ptr %7) #7
  call void @llvm.lifetime.end.p0(i64 8, ptr %6) #7
  %69 = load ptr, ptr %3, align 8
  ret ptr %69
}