; Function Attrs: nounwind uwtable
define internal ptr @unicode_aswidechar(ptr readnone captures(none) %0, ptr noundef %1) #0 {
  %3 = alloca ptr, align 8
  %4 = alloca i64, align 8
  call void @llvm.lifetime.start.p0(i64 8, ptr nonnull %3) #4
  call void @llvm.lifetime.start.p0(i64 8, ptr nonnull %4) #4
  %5 = call i32 (ptr, ptr, ...) @PyArg_ParseTuple(ptr noundef %1, ptr noundef nonnull @.str.358, ptr noundef nonnull %3, ptr noundef nonnull %4) #4
  %.not = icmp eq i32 %5, 0
  br i1 %.not, label %33, label %6

6:                                                ; preds = %2
  %7 = load ptr, ptr %3, align 8, !tbaa !8
  %8 = call ptr @Py_GetConstantBorrowed(i32 noundef 0) #4
  %9 = icmp eq ptr %7, %8
  br i1 %9, label %10, label %11

10:                                               ; preds = %6
  store ptr null, ptr %3, align 8, !tbaa !8
  br label %11

11:                                               ; preds = %10, %6
  %12 = load i64, ptr %4, align 8, !tbaa !10
  %13 = icmp ugt i64 %12, 2305843009213693951
  br i1 %13, label %.thread, label %14

14:                                               ; preds = %11
  %15 = shl nuw nsw i64 %12, 2
  %16 = call ptr @PyMem_Malloc(i64 noundef %15) #4
  %17 = icmp eq ptr %16, null
  br i1 %17, label %.thread, label %19

.thread:                                          ; preds = %11, %14
  %18 = call ptr @PyErr_NoMemory() #4
  br label %33

19:                                               ; preds = %14
  %20 = load ptr, ptr %3, align 8, !tbaa !8
  %21 = load i64, ptr %4, align 8, !tbaa !10
  %22 = call i64 @PyUnicode_AsWideChar(ptr noundef %20, ptr noundef nonnull %16, i64 noundef %21) #4
  %23 = icmp eq i64 %22, -1
  br i1 %23, label %24, label %25

24:                                               ; preds = %19
  call void @PyMem_Free(ptr noundef nonnull %16) #4
  br label %33

25:                                               ; preds = %19
  %26 = load i64, ptr %4, align 8, !tbaa !10
  %27 = icmp slt i64 %22, %26
  %28 = zext i1 %27 to i64
  %storemerge = add nuw i64 %22, %28
  store i64 %storemerge, ptr %4, align 8, !tbaa !10
  %29 = call ptr @PyUnicode_FromWideChar(ptr noundef nonnull %16, i64 noundef %storemerge) #4
  call void @PyMem_Free(ptr noundef nonnull %16) #4
  %30 = icmp eq ptr %29, null
  br i1 %30, label %33, label %31

31:                                               ; preds = %25
  %32 = call ptr (ptr, ...) @Py_BuildValue(ptr noundef nonnull @.str.371, ptr noundef nonnull %29, i64 noundef %22) #4
  br label %33

33:                                               ; preds = %25, %2, %31, %24, %.thread
  %.0 = phi ptr [ %18, %.thread ], [ null, %24 ], [ %32, %31 ], [ null, %2 ], [ null, %25 ]
  call void @llvm.lifetime.end.p0(i64 8, ptr nonnull %4) #4
  call void @llvm.lifetime.end.p0(i64 8, ptr nonnull %3) #4
  ret ptr %.0
}